target datalayout = "e-m:e-p270:32:32-p271:32:32-p272:64:64-i64:64-i128:128-f80:128-n8:16:32:64-S128"
target triple = "x86_64-pc-linux-gnu"

%struct.TupleTableSlotOps = type { i64, ptr, ptr, ptr, ptr, ptr, ptr, ptr, ptr, ptr, ptr, ptr, ptr }
%struct.ProjectSetState = type { %struct.PlanState, ptr, ptr, i32, i8, ptr }
%struct.PlanState = type { i32, ptr, ptr, ptr, ptr, ptr, ptr, ptr, ptr, ptr, ptr, ptr, ptr, ptr, ptr, ptr, ptr, ptr, i8, ptr, ptr, ptr, ptr, ptr, i8, i8, i8, i8, i8, i8, i8, i8 }
%struct.Node = type { i32 }
%struct.ExprContext = type { i32, ptr, ptr, ptr, ptr, ptr, ptr, ptr, ptr, ptr, i64, i8, i64, i8, ptr, ptr, ptr, ptr }
%struct.TupleTableSlot = type { i32, i16, i16, ptr, ptr, ptr, ptr, ptr, %struct.ItemPointerData, i32 }
%struct.ItemPointerData = type { %struct.BlockIdData, i16 }
%struct.BlockIdData = type { i16, i16 }
%struct.ExprState = type { i32, i8, i8, i64, ptr, ptr, ptr, ptr, ptr, i32, i32, ptr, ptr, ptr, ptr, ptr, ptr, ptr }

@CurrentMemoryContext = external global ptr, align 8

; Function Attrs: inlinehint nounwind uwtable
define internal i64 @ExecEvalExpr(ptr noundef %0, ptr noundef %1, ptr noundef %2) #2 {
  %4 = alloca ptr, align 8
  %5 = alloca ptr, align 8
  %6 = alloca ptr, align 8
  store ptr %0, ptr %4, align 8
  store ptr %1, ptr %5, align 8
  store ptr %2, ptr %6, align 8
  %7 = load ptr, ptr %4, align 8
  %8 = getelementptr inbounds nuw %struct.ExprState, ptr %7, i32 0, i32 6
  %9 = load ptr, ptr %8, align 8
  %10 = load ptr, ptr %4, align 8
  %11 = load ptr, ptr %5, align 8
  %12 = load ptr, ptr %6, align 8
  %13 = call i64 %9(ptr noundef %10, ptr noundef %11, ptr noundef %12)
  ret i64 %13
}

; Function Attrs: inlinehint nounwind uwtable
define internal ptr @MemoryContextSwitchTo(ptr noundef %0) #2 {
  %2 = alloca ptr, align 8
  %3 = alloca ptr, align 8
  store ptr %0, ptr %2, align 8
  call void @llvm.lifetime.start.p0(i64 8, ptr %3) #6
  %4 = load ptr, ptr @CurrentMemoryContext, align 8
  store ptr %4, ptr %3, align 8
  %5 = load ptr, ptr %2, align 8
  store ptr %5, ptr @CurrentMemoryContext, align 8
  %6 = load ptr, ptr %3, align 8
  call void @llvm.lifetime.end.p0(i64 8, ptr %3) #6
  ret ptr %6
}

; Function Attrs: inlinehint nounwind uwtable
define internal ptr @ExecClearTuple(ptr noundef %0) #2 {
  %2 = alloca ptr, align 8
  store ptr %0, ptr %2, align 8
  %3 = load ptr, ptr %2, align 8
  %4 = getelementptr inbounds nuw %struct.TupleTableSlot, ptr %3, i32 0, i32 3
  %5 = load ptr, ptr %4, align 8
  %6 = getelementptr inbounds nuw %struct.TupleTableSlotOps, ptr %5, i32 0, i32 3
  %7 = load ptr, ptr %6, align 8
  %8 = load ptr, ptr %2, align 8
  call void %7(ptr noundef %8)
  %9 = load ptr, ptr %2, align 8
  ret ptr %9
}

; Function Attrs: nounwind uwtable
define internal ptr @ExecProjectSRF(ptr noundef %0, i1 noundef zeroext %1) #0 {
  %3 = alloca ptr, align 8
  %4 = alloca ptr, align 8
  %5 = alloca i8, align 1
  %6 = alloca ptr, align 8
  %7 = alloca ptr, align 8
  %8 = alloca ptr, align 8
  %9 = alloca i8, align 1
  %10 = alloca i8, align 1
  %11 = alloca i32, align 4
  %12 = alloca ptr, align 8
  %13 = alloca ptr, align 8
  %14 = alloca ptr, align 8
  %15 = alloca ptr, align 8
  %16 = alloca i32, align 4
  store ptr %0, ptr %4, align 8
  %17 = zext i1 %1 to i8
  store i8 %17, ptr %5, align 1
  call void @llvm.lifetime.start.p0(i64 8, ptr %6) #6
  %18 = load ptr, ptr %4, align 8
  %19 = getelementptr inbounds nuw %struct.ProjectSetState, ptr %18, i32 0, i32 0
  %20 = getelementptr inbounds nuw %struct.PlanState, ptr %19, i32 0, i32 15
  %21 = load ptr, ptr %20, align 8
  store ptr %21, ptr %6, align 8
  call void @llvm.lifetime.start.p0(i64 8, ptr %7) #6
  %22 = load ptr, ptr %4, align 8
  %23 = getelementptr inbounds nuw %struct.ProjectSetState, ptr %22, i32 0, i32 0
  %24 = getelementptr inbounds nuw %struct.PlanState, ptr %23, i32 0, i32 16
  %25 = load ptr, ptr %24, align 8
  store ptr %25, ptr %7, align 8
  call void @llvm.lifetime.start.p0(i64 8, ptr %8) #6
  call void @llvm.lifetime.start.p0(i64 1, ptr %9) #6
  call void @llvm.lifetime.start.p0(i64 1, ptr %10) #6
  call void @llvm.lifetime.start.p0(i64 4, ptr %11) #6
  %26 = load ptr, ptr %6, align 8
  %27 = call ptr @ExecClearTuple(ptr noundef %26)
  %28 = load ptr, ptr %7, align 8
  %29 = getelementptr inbounds nuw %struct.ExprContext, ptr %28, i32 0, i32 5
  %30 = load ptr, ptr %29, align 8
  %31 = call ptr @MemoryContextSwitchTo(ptr noundef %30)
  store ptr %31, ptr %8, align 8
  %32 = load ptr, ptr %4, align 8
  %33 = getelementptr inbounds nuw %struct.ProjectSetState, ptr %32, i32 0, i32 4
  store i8 0, ptr %33, align 4
  store i8 0, ptr %10, align 1
  store i8 0, ptr %9, align 1
  store i32 0, ptr %11, align 4
  br label %34

34:                                               ; preds = %111, %2
  %35 = load i32, ptr %11, align 4
  %36 = load ptr, ptr %4, align 8
  %37 = getelementptr inbounds nuw %struct.ProjectSetState, ptr %36, i32 0, i32 3
  %38 = load i32, ptr %37, align 8
  %39 = icmp slt i32 %35, %38
  br i1 %39, label %40, label %114

40:                                               ; preds = %34
  call void @llvm.lifetime.start.p0(i64 8, ptr %12) #6
  %41 = load ptr, ptr %4, align 8
  %42 = getelementptr inbounds nuw %struct.ProjectSetState, ptr %41, i32 0, i32 1
  %43 = load ptr, ptr %42, align 8
  %44 = load i32, ptr %11, align 4
  %45 = sext i32 %44 to i64
  %46 = getelementptr inbounds ptr, ptr %43, i64 %45
  %47 = load ptr, ptr %46, align 8
  store ptr %47, ptr %12, align 8
  call void @llvm.lifetime.start.p0(i64 8, ptr %13) #6
  %48 = load ptr, ptr %4, align 8
  %49 = getelementptr inbounds nuw %struct.ProjectSetState, ptr %48, i32 0, i32 2
  %50 = load ptr, ptr %49, align 8
  %51 = load i32, ptr %11, align 4
  %52 = sext i32 %51 to i64
  %53 = getelementptr inbounds i32, ptr %50, i64 %52
  store ptr %53, ptr %13, align 8
  call void @llvm.lifetime.start.p0(i64 8, ptr %14) #6
  %54 = load ptr, ptr %6, align 8
  %55 = getelementptr inbounds nuw %struct.TupleTableSlot, ptr %54, i32 0, i32 5
  %56 = load ptr, ptr %55, align 8
  %57 = load i32, ptr %11, align 4
  %58 = sext i32 %57 to i64
  %59 = getelementptr inbounds i64, ptr %56, i64 %58
  store ptr %59, ptr %14, align 8
  call void @llvm.lifetime.start.p0(i64 8, ptr %15) #6
  %60 = load ptr, ptr %6, align 8
  %61 = getelementptr inbounds nuw %struct.TupleTableSlot, ptr %60, i32 0, i32 6
  %62 = load ptr, ptr %61, align 8
  %63 = load i32, ptr %11, align 4
  %64 = sext i32 %63 to i64
  %65 = getelementptr inbounds i8, ptr %62, i64 %64
  store ptr %65, ptr %15, align 8
  %66 = load i8, ptr %5, align 1, !range !4, !noundef !5
  %67 = trunc i8 %66 to i1
  br i1 %67, label %68, label %75

68:                                               ; preds = %40
  %69 = load ptr, ptr %13, align 8
  %70 = load i32, ptr %69, align 4
  %71 = icmp eq i32 %70, 2
  br i1 %71, label %72, label %75

72:                                               ; preds = %68
  %73 = load ptr, ptr %14, align 8
  store i64 0, ptr %73, align 8
  %74 = load ptr, ptr %15, align 8
  store i8 1, ptr %74, align 1
  store i8 1, ptr %9, align 1
  br label %110

75:                                               ; preds = %68, %40
  %76 = load ptr, ptr %12, align 8
  %77 = getelementptr inbounds nuw %struct.Node, ptr %76, i32 0, i32 0
  %78 = load i32, ptr %77, align 4
  %79 = icmp eq i32 %78, 390
  br i1 %79, label %80, label %102

80:                                               ; preds = %75
  %81 = load ptr, ptr %12, align 8
  %82 = load ptr, ptr %7, align 8
  %83 = load ptr, ptr %4, align 8
  %84 = getelementptr inbounds nuw %struct.ProjectSetState, ptr %83, i32 0, i32 5
  %85 = load ptr, ptr %84, align 8
  %86 = load ptr, ptr %15, align 8
  %87 = load ptr, ptr %13, align 8
  %88 = call i64 @ExecMakeFunctionResultSet(ptr noundef %81, ptr noundef %82, ptr noundef %85, ptr noundef %86, ptr noundef %87)
  %89 = load ptr, ptr %14, align 8
  store i64 %88, ptr %89, align 8
  %90 = load ptr, ptr %13, align 8
  %91 = load i32, ptr %90, align 4
  %92 = icmp ne i32 %91, 2
  br i1 %92, label %93, label %94

93:                                               ; preds = %80
  store i8 1, ptr %10, align 1
  br label %94

94:                                               ; preds = %93, %80
  %95 = load ptr, ptr %13, align 8
  %96 = load i32, ptr %95, align 4
  %97 = icmp eq i32 %96, 1
  br i1 %97, label %98, label %101

98:                                               ; preds = %94
  %99 = load ptr, ptr %4, align 8
  %100 = getelementptr inbounds nuw %struct.ProjectSetState, ptr %99, i32 0, i32 4
  store i8 1, ptr %100, align 4
  br label %101

101:                                              ; preds = %98, %94
  store i8 1, ptr %9, align 1
  br label %109

102:                                              ; preds = %75
  %103 = load ptr, ptr %12, align 8
  %104 = load ptr, ptr %7, align 8
  %105 = load ptr, ptr %15, align 8
  %106 = call i64 @ExecEvalExpr(ptr noundef %103, ptr noundef %104, ptr noundef %105)
  %107 = load ptr, ptr %14, align 8
  store i64 %106, ptr %107, align 8
  %108 = load ptr, ptr %13, align 8
  store i32 0, ptr %108, align 4
  br label %109

109:                                              ; preds = %102, %101
  br label %110

110:                                              ; preds = %109, %72
  call void @llvm.lifetime.end.p0(i64 8, ptr %15) #6
  call void @llvm.lifetime.end.p0(i64 8, ptr %14) #6
  call void @llvm.lifetime.end.p0(i64 8, ptr %13) #6
  call void @llvm.lifetime.end.p0(i64 8, ptr %12) #6
  br label %111

111:                                              ; preds = %110
  %112 = load i32, ptr %11, align 4
  %113 = add i32 %112, 1
  store i32 %113, ptr %11, align 4
  br label %34, !llvm.loop !8

114:                                              ; preds = %34
  %115 = load ptr, ptr %8, align 8
  %116 = call ptr @MemoryContextSwitchTo(ptr noundef %115)
  %117 = load i8, ptr %10, align 1, !range !4, !noundef !5
  %118 = trunc i8 %117 to i1
  br i1 %118, label %119, label %123

119:                                              ; preds = %114
  %120 = load ptr, ptr %6, align 8
  %121 = call ptr @ExecStoreVirtualTuple(ptr noundef %120)
  %122 = load ptr, ptr %6, align 8
  store ptr %122, ptr %3, align 8
  store i32 1, ptr %16, align 4
  br label %124

123:                                              ; preds = %114
  store ptr null, ptr %3, align 8
  store i32 1, ptr %16, align 4
  br label %124

124:                                              ; preds = %123, %119
  call void @llvm.lifetime.end.p0(i64 4, ptr %11) #6
  call void @llvm.lifetime.end.p0(i64 1, ptr %10) #6
  call void @llvm.lifetime.end.p0(i64 1, ptr %9) #6
  call void @llvm.lifetime.end.p0(i64 8, ptr %8) #6
  call void @llvm.lifetime.end.p0(i64 8, ptr %7) #6
  call void @llvm.lifetime.end.p0(i64 8, ptr %6) #6
  %125 = load ptr, ptr %3, align 8
  ret ptr %125
}