; Function Attrs: nounwind uwtable
define internal fastcc noundef ptr @ExecProjectSRF(ptr noundef captures(none) initializes((220, 221)) %0, i1 noundef zeroext %1) unnamed_addr #0 {
  %3 = getelementptr inbounds nuw i8, ptr %0, i64 120
  %4 = load ptr, ptr %3, align 8
  %5 = getelementptr inbounds nuw i8, ptr %0, i64 128
  %6 = load ptr, ptr %5, align 8
  %7 = getelementptr inbounds nuw i8, ptr %4, i64 8
  %8 = load ptr, ptr %7, align 8
  %9 = getelementptr inbounds nuw i8, ptr %8, i64 24
  %10 = load ptr, ptr %9, align 8
  tail call void %10(ptr noundef %4) #2
  %11 = getelementptr inbounds nuw i8, ptr %6, i64 40
  %12 = load ptr, ptr %11, align 8
  %13 = load ptr, ptr @CurrentMemoryContext, align 8
  store ptr %12, ptr @CurrentMemoryContext, align 8
  %14 = getelementptr inbounds nuw i8, ptr %0, i64 220
  store i8 0, ptr %14, align 4
  %15 = getelementptr inbounds nuw i8, ptr %0, i64 216
  %16 = load i32, ptr %15, align 8
  %17 = icmp sgt i32 %16, 0
  br i1 %17, label %.lr.ph, label %.critedge

.lr.ph:                                           ; preds = %2
  %18 = getelementptr inbounds nuw i8, ptr %0, i64 200
  %19 = getelementptr inbounds nuw i8, ptr %0, i64 208
  %20 = getelementptr inbounds nuw i8, ptr %4, i64 24
  %21 = getelementptr inbounds nuw i8, ptr %4, i64 32
  %22 = getelementptr inbounds nuw i8, ptr %0, i64 224
  br i1 %1, label %.lr.ph.split.us, label %.lr.ph.split

.lr.ph.split.us:                                  ; preds = %.lr.ph, %48
  %indvars.iv44 = phi i64 [ %indvars.iv.next45, %48 ], [ 0, %.lr.ph ]
  %.03942.us = phi i1 [ %.1.us, %48 ], [ false, %.lr.ph ]
  %23 = load ptr, ptr %18, align 8
  %24 = getelementptr inbounds nuw ptr, ptr %23, i64 %indvars.iv44
  %25 = load ptr, ptr %24, align 8
  %26 = load ptr, ptr %19, align 8
  %27 = getelementptr inbounds nuw i32, ptr %26, i64 %indvars.iv44
  %28 = load ptr, ptr %20, align 8
  %29 = getelementptr inbounds nuw i64, ptr %28, i64 %indvars.iv44
  %30 = load ptr, ptr %21, align 8
  %31 = getelementptr inbounds nuw i8, ptr %30, i64 %indvars.iv44
  %32 = load i32, ptr %27, align 4
  %33 = icmp eq i32 %32, 2
  br i1 %33, label %47, label %34

34:                                               ; preds = %.lr.ph.split.us
  %35 = load i32, ptr %25, align 4
  %36 = icmp eq i32 %35, 390
  br i1 %36, label %41, label %37

37:                                               ; preds = %34
  %38 = getelementptr inbounds nuw i8, ptr %25, i64 32
  %39 = load ptr, ptr %38, align 8
  %40 = tail call i64 %39(ptr noundef nonnull %25, ptr noundef %6, ptr noundef %31) #2
  store i64 %40, ptr %29, align 8
  store i32 0, ptr %27, align 4
  br label %48

41:                                               ; preds = %34
  %42 = load ptr, ptr %22, align 8
  %43 = tail call i64 @ExecMakeFunctionResultSet(ptr noundef nonnull %25, ptr noundef %6, ptr noundef %42, ptr noundef %31, ptr noundef nonnull %27) #2
  store i64 %43, ptr %29, align 8
  %44 = load i32, ptr %27, align 4
  %.not.us = icmp ne i32 %44, 2
  %spec.select.us = select i1 %.not.us, i1 true, i1 %.03942.us
  %45 = icmp eq i32 %44, 1
  br i1 %45, label %46, label %48

46:                                               ; preds = %41
  store i8 1, ptr %14, align 4
  br label %48

47:                                               ; preds = %.lr.ph.split.us
  store i64 0, ptr %29, align 8
  store i8 1, ptr %31, align 1
  br label %48

48:                                               ; preds = %47, %46, %41, %37
  %.1.us = phi i1 [ %.03942.us, %47 ], [ %.03942.us, %37 ], [ %spec.select.us, %46 ], [ %spec.select.us, %41 ]
  %indvars.iv.next45 = add nuw nsw i64 %indvars.iv44, 1
  %49 = load i32, ptr %15, align 8
  %50 = sext i32 %49 to i64
  %51 = icmp slt i64 %indvars.iv.next45, %50
  br i1 %51, label %.lr.ph.split.us, label %._crit_edge, !llvm.loop !7

.lr.ph.split:                                     ; preds = %.lr.ph, %73
  %indvars.iv = phi i64 [ %indvars.iv.next, %73 ], [ 0, %.lr.ph ]
  %.03942 = phi i1 [ %.1, %73 ], [ false, %.lr.ph ]
  %52 = load ptr, ptr %18, align 8
  %53 = getelementptr inbounds nuw ptr, ptr %52, i64 %indvars.iv
  %54 = load ptr, ptr %53, align 8
  %55 = load ptr, ptr %19, align 8
  %56 = getelementptr inbounds nuw i32, ptr %55, i64 %indvars.iv
  %57 = load ptr, ptr %20, align 8
  %58 = getelementptr inbounds nuw i64, ptr %57, i64 %indvars.iv
  %59 = load ptr, ptr %21, align 8
  %60 = getelementptr inbounds nuw i8, ptr %59, i64 %indvars.iv
  %61 = load i32, ptr %54, align 4
  %62 = icmp eq i32 %61, 390
  br i1 %62, label %63, label %69

63:                                               ; preds = %.lr.ph.split
  %64 = load ptr, ptr %22, align 8
  %65 = tail call i64 @ExecMakeFunctionResultSet(ptr noundef nonnull %54, ptr noundef %6, ptr noundef %64, ptr noundef %60, ptr noundef %56) #2
  store i64 %65, ptr %58, align 8
  %66 = load i32, ptr %56, align 4
  %.not = icmp ne i32 %66, 2
  %spec.select = select i1 %.not, i1 true, i1 %.03942
  %67 = icmp eq i32 %66, 1
  br i1 %67, label %68, label %73

68:                                               ; preds = %63
  store i8 1, ptr %14, align 4
  br label %73

69:                                               ; preds = %.lr.ph.split
  %70 = getelementptr inbounds nuw i8, ptr %54, i64 32
  %71 = load ptr, ptr %70, align 8
  %72 = tail call i64 %71(ptr noundef nonnull %54, ptr noundef %6, ptr noundef %60) #2
  store i64 %72, ptr %58, align 8
  store i32 0, ptr %56, align 4
  br label %73

73:                                               ; preds = %63, %68, %69
  %.1 = phi i1 [ %.03942, %69 ], [ %spec.select, %68 ], [ %spec.select, %63 ]
  %indvars.iv.next = add nuw nsw i64 %indvars.iv, 1
  %74 = load i32, ptr %15, align 8
  %75 = sext i32 %74 to i64
  %76 = icmp slt i64 %indvars.iv.next, %75
  br i1 %76, label %.lr.ph.split, label %._crit_edge, !llvm.loop !7

._crit_edge:                                      ; preds = %73, %48
  %.039.lcssa = phi i1 [ %.1.us, %48 ], [ %.1, %73 ]
  store ptr %13, ptr @CurrentMemoryContext, align 8
  br i1 %.039.lcssa, label %77, label %79

77:                                               ; preds = %._crit_edge
  %78 = tail call ptr @ExecStoreVirtualTuple(ptr noundef nonnull %4) #2
  br label %79

.critedge:                                        ; preds = %2
  store ptr %13, ptr @CurrentMemoryContext, align 8
  br label %79

79:                                               ; preds = %.critedge, %._crit_edge, %77
  %.0 = phi ptr [ %4, %77 ], [ null, %._crit_edge ], [ null, %.critedge ]
  ret ptr %.0
}